; Function Attrs: mustprogress nofree nounwind memory(readwrite, inaccessiblemem: write) uwtable
define noundef double @_ZN9benchmark16StatisticsStdDevERKSt6vectorIdSaIdEE(ptr noundef nonnull readonly align 8 captures(none) dereferenceable(24) %0) local_unnamed_addr #7 {
  %2 = load ptr, ptr %0, align 8, !tbaa !3
  %3 = getelementptr inbounds nuw i8, ptr %0, i64 8
  %4 = load ptr, ptr %3, align 8, !tbaa !3
  %5 = icmp eq ptr %2, %4
  br i1 %5, label %"_ZNK9benchmark3$_2clEd.exit", label %.lr.ph.i.i.i

.lr.ph.i.i.i:                                     ; preds = %1, %.lr.ph.i.i.i
  %.07.i.i.i = phi double [ %7, %.lr.ph.i.i.i ], [ 0.000000e+00, %1 ]
  %.sroa.02.06.i.i.i = phi ptr [ %8, %.lr.ph.i.i.i ], [ %2, %1 ]
  %6 = load double, ptr %.sroa.02.06.i.i.i, align 8, !tbaa !8
  %7 = fadd double %.07.i.i.i, %6
  %8 = getelementptr inbounds nuw i8, ptr %.sroa.02.06.i.i.i, i64 8
  %.not.i.i.i = icmp eq ptr %8, %4
  br i1 %.not.i.i.i, label %_ZN9benchmark14StatisticsMeanERKSt6vectorIdSaIdEE.exit, label %.lr.ph.i.i.i, !llvm.loop !10

_ZN9benchmark14StatisticsMeanERKSt6vectorIdSaIdEE.exit: ; preds = %.lr.ph.i.i.i
  %9 = ptrtoint ptr %4 to i64
  %10 = ptrtoint ptr %2 to i64
  %11 = sub i64 %9, %10
  %12 = ashr exact i64 %11, 3
  %13 = uitofp i64 %12 to double
  %14 = fdiv double 1.000000e+00, %13
  %15 = fmul double %14, %7
  %16 = icmp eq i64 %11, 8
  br i1 %16, label %"_ZNK9benchmark3$_2clEd.exit", label %.lr.ph.i.i

.lr.ph.i.i:                                       ; preds = %_ZN9benchmark14StatisticsMeanERKSt6vectorIdSaIdEE.exit, %.lr.ph.i.i
  %.010.i.i = phi double [ %18, %.lr.ph.i.i ], [ 0.000000e+00, %_ZN9benchmark14StatisticsMeanERKSt6vectorIdSaIdEE.exit ]
  %.sroa.0.09.i.i = phi ptr [ %19, %.lr.ph.i.i ], [ %2, %_ZN9benchmark14StatisticsMeanERKSt6vectorIdSaIdEE.exit ]
  %17 = load double, ptr %.sroa.0.09.i.i, align 8, !tbaa !8
  %18 = tail call double @llvm.fmuladd.f64(double %17, double %17, double %.010.i.i)
  %19 = getelementptr i8, ptr %.sroa.0.09.i.i, i64 8
  %.not.i.i = icmp eq ptr %19, %4
  br i1 %.not.i.i, label %"_ZNK9benchmark3$_1clERKSt6vectorIdSaIdEE.exit", label %.lr.ph.i.i, !llvm.loop !17

"_ZNK9benchmark3$_1clERKSt6vectorIdSaIdEE.exit":  ; preds = %.lr.ph.i.i
  %20 = fmul double %14, %18
  %21 = fadd double %13, -1.000000e+00
  %22 = fdiv double %13, %21
  %23 = fmul double %15, %15
  %24 = fsub double %20, %23
  %25 = fmul double %22, %24
  %26 = fcmp olt double %25, 0.000000e+00
  br i1 %26, label %"_ZNK9benchmark3$_2clEd.exit", label %27

27:                                               ; preds = %"_ZNK9benchmark3$_1clERKSt6vectorIdSaIdEE.exit"
  %28 = tail call double @sqrt(double noundef %25) #29, !tbaa !18
  br label %"_ZNK9benchmark3$_2clEd.exit"

"_ZNK9benchmark3$_2clEd.exit":                    ; preds = %1, %27, %"_ZNK9benchmark3$_1clERKSt6vectorIdSaIdEE.exit", %_ZN9benchmark14StatisticsMeanERKSt6vectorIdSaIdEE.exit
  %.0 = phi double [ 0.000000e+00, %_ZN9benchmark14StatisticsMeanERKSt6vectorIdSaIdEE.exit ], [ %28, %27 ], [ 0.000000e+00, %"_ZNK9benchmark3$_1clERKSt6vectorIdSaIdEE.exit" ], [ 0.000000e+00, %1 ]
  ret double %.0
}